
bin/parcv2-custom-dualissue:     file format elf32-littlemips


Disassembly of section .text:

00080000 <_test>:
   80000:	24020001 	li	v1,1
   80004:	24030002 	li	a0,2
   80008:	24040001 	li	a1,1
   8000c:	24050002 	li	a2,2
   80010:	00442021 	addu	a1,v1,a1
   80014:	00652821 	addu	a2,a0,a2
   80018:	00442021 	addu	a1,v1,a1
   8001c:	00652821 	addu	a2,a0,a2
   80020:	00442021 	addu	a1,v1,a1
   80024:	00652821 	addu	a2,a0,a2
   80028:	00442021 	addu	a1,v1,a1
   8002c:	00652821 	addu	a2,a0,a2
   80030:	00442021 	addu	a1,v1,a1
   80034:	00652821 	addu	a2,a0,a2
   80038:	00442021 	addu	a1,v1,a1
   8003c:	00652821 	addu	a2,a0,a2
   80040:	00442021 	addu	a1,v1,a1
   80044:	00652821 	addu	a2,a0,a2
   80048:	00442021 	addu	a1,v1,a1
   8004c:	00652821 	addu	a2,a0,a2
   80050:	00442021 	addu	a1,v1,a1
   80054:	00652821 	addu	a2,a0,a2
   80058:	00442021 	addu	a1,v1,a1
   8005c:	00652821 	addu	a2,a0,a2
   80060:	00442021 	addu	a1,v1,a1
   80064:	00652821 	addu	a2,a0,a2
   80068:	00442021 	addu	a1,v1,a1
   8006c:	00652821 	addu	a2,a0,a2
   80070:	00442021 	addu	a1,v1,a1
   80074:	00652821 	addu	a2,a0,a2
   80078:	00442021 	addu	a1,v1,a1
   8007c:	00652821 	addu	a2,a0,a2
   80080:	00442021 	addu	a1,v1,a1
   80084:	00652821 	addu	a2,a0,a2
   80088:	00442021 	addu	a1,v1,a1
   8008c:	00652821 	addu	a2,a0,a2
   80090:	00442021 	addu	a1,v1,a1
   80094:	00652821 	addu	a2,a0,a2
   80098:	00442021 	addu	a1,v1,a1
   8009c:	00652821 	addu	a2,a0,a2
   800a0:	00442021 	addu	a1,v1,a1
   800a4:	00652821 	addu	a2,a0,a2
   800a8:	00442021 	addu	a1,v1,a1
   800ac:	00652821 	addu	a2,a0,a2
   800b0:	00442021 	addu	a1,v1,a1
   800b4:	00652821 	addu	a2,a0,a2
   800b8:	00442021 	addu	a1,v1,a1
   800bc:	00652821 	addu	a2,a0,a2
   800c0:	00442021 	addu	a1,v1,a1
   800c4:	00652821 	addu	a2,a0,a2
   800c8:	00442021 	addu	a1,v1,a1
   800cc:	00652821 	addu	a2,a0,a2
   800d0:	00442021 	addu	a1,v1,a1
   800d4:	00652821 	addu	a2,a0,a2
   800d8:	00442021 	addu	a1,v1,a1
   800dc:	00652821 	addu	a2,a0,a2
   800e0:	00442021 	addu	a1,v1,a1
   800e4:	00652821 	addu	a2,a0,a2
   800e8:	00442021 	addu	a1,v1,a1
   800ec:	00652821 	addu	a2,a0,a2
   800f0:	00442021 	addu	a1,v1,a1
   800f4:	00652821 	addu	a2,a0,a2
   800f8:	00442021 	addu	a1,v1,a1
   800fc:	00652821 	addu	a2,a0,a2
   80100:	00442021 	addu	a1,v1,a1
   80104:	00652821 	addu	a2,a0,a2
   80108:	00442021 	addu	a1,v1,a1
   8010c:	00652821 	addu	a2,a0,a2
   80110:	00442021 	addu	a1,v1,a1
   80114:	00652821 	addu	a2,a0,a2
   80118:	00442021 	addu	a1,v1,a1
   8011c:	00652821 	addu	a2,a0,a2
   80120:	00442021 	addu	a1,v1,a1
   80124:	00652821 	addu	a2,a0,a2
   80128:	00442021 	addu	a1,v1,a1
   8012c:	00652821 	addu	a2,a0,a2
   80130:	00442021 	addu	a1,v1,a1
   80134:	00652821 	addu	a2,a0,a2
   80138:	00442021 	addu	a1,v1,a1
   8013c:	00652821 	addu	a2,a0,a2
   80140:	00442021 	addu	a1,v1,a1
   80144:	00652821 	addu	a2,a0,a2
   80148:	00442021 	addu	a1,v1,a1
   8014c:	00652821 	addu	a2,a0,a2
   80150:	00442021 	addu	a1,v1,a1
   80154:	00652821 	addu	a2,a0,a2
   80158:	00442021 	addu	a1,v1,a1
   8015c:	00652821 	addu	a2,a0,a2
   80160:	00442021 	addu	a1,v1,a1
   80164:	00652821 	addu	a2,a0,a2
   80168:	00442021 	addu	a1,v1,a1
   8016c:	00652821 	addu	a2,a0,a2
   80170:	00442021 	addu	a1,v1,a1
   80174:	00652821 	addu	a2,a0,a2
   80178:	00442021 	addu	a1,v1,a1
   8017c:	00652821 	addu	a2,a0,a2
   80180:	00442021 	addu	a1,v1,a1
   80184:	00652821 	addu	a2,a0,a2
   80188:	00442021 	addu	a1,v1,a1
   8018c:	00652821 	addu	a2,a0,a2
   80190:	00442021 	addu	a1,v1,a1
   80194:	00652821 	addu	a2,a0,a2
   80198:	00442021 	addu	a1,v1,a1
   8019c:	00652821 	addu	a2,a0,a2
   801a0:	00442021 	addu	a1,v1,a1
   801a4:	00652821 	addu	a2,a0,a2
   801a8:	00442021 	addu	a1,v1,a1
   801ac:	00652821 	addu	a2,a0,a2
   801b0:	00442021 	addu	a1,v1,a1
   801b4:	00652821 	addu	a2,a0,a2
   801b8:	00442021 	addu	a1,v1,a1
   801bc:	00652821 	addu	a2,a0,a2
   801c0:	00442021 	addu	a1,v1,a1
   801c4:	00652821 	addu	a2,a0,a2
   801c8:	00442021 	addu	a1,v1,a1
   801cc:	00652821 	addu	a2,a0,a2
   801d0:	00442021 	addu	a1,v1,a1
   801d4:	00652821 	addu	a2,a0,a2
   801d8:	00442021 	addu	a1,v1,a1
   801dc:	00652821 	addu	a2,a0,a2
   801e0:	00442021 	addu	a1,v1,a1
   801e4:	00652821 	addu	a2,a0,a2
   801e8:	00442021 	addu	a1,v1,a1
   801ec:	00652821 	addu	a2,a0,a2
   801f0:	00442021 	addu	a1,v1,a1
   801f4:	00652821 	addu	a2,a0,a2
   801f8:	00442021 	addu	a1,v1,a1
   801fc:	00652821 	addu	a2,a0,a2
   80200:	00442021 	addu	a1,v1,a1
   80204:	00652821 	addu	a2,a0,a2
   80208:	00442021 	addu	a1,v1,a1
   8020c:	00652821 	addu	a2,a0,a2
   80210:	00442021 	addu	a1,v1,a1
   80214:	00652821 	addu	a2,a0,a2
   80218:	00442021 	addu	a1,v1,a1
   8021c:	00652821 	addu	a2,a0,a2
   80220:	00442021 	addu	a1,v1,a1
   80224:	00652821 	addu	a2,a0,a2
   80228:	00442021 	addu	a1,v1,a1
   8022c:	00652821 	addu	a2,a0,a2
   80230:	00442021 	addu	a1,v1,a1
   80234:	00652821 	addu	a2,a0,a2
   80238:	00442021 	addu	a1,v1,a1
   8023c:	00652821 	addu	a2,a0,a2
   80240:	00442021 	addu	a1,v1,a1
   80244:	00652821 	addu	a2,a0,a2
   80248:	00442021 	addu	a1,v1,a1
   8024c:	00652821 	addu	a2,a0,a2
   80250:	00442021 	addu	a1,v1,a1
   80254:	00652821 	addu	a2,a0,a2
   80258:	00442021 	addu	a1,v1,a1
   8025c:	00652821 	addu	a2,a0,a2
   80260:	00442021 	addu	a1,v1,a1
   80264:	00652821 	addu	a2,a0,a2
   80268:	00442021 	addu	a1,v1,a1
   8026c:	00652821 	addu	a2,a0,a2
   80270:	00442021 	addu	a1,v1,a1
   80274:	00652821 	addu	a2,a0,a2
   80278:	00442021 	addu	a1,v1,a1
   8027c:	00652821 	addu	a2,a0,a2
   80280:	00442021 	addu	a1,v1,a1
   80284:	00652821 	addu	a2,a0,a2
   80288:	00442021 	addu	a1,v1,a1
   8028c:	00652821 	addu	a2,a0,a2
   80290:	00442021 	addu	a1,v1,a1
   80294:	00652821 	addu	a2,a0,a2
   80298:	00442021 	addu	a1,v1,a1
   8029c:	00652821 	addu	a2,a0,a2
   802a0:	00442021 	addu	a1,v1,a1
   802a4:	00652821 	addu	a2,a0,a2
   802a8:	00442021 	addu	a1,v1,a1
   802ac:	00652821 	addu	a2,a0,a2
   802b0:	00442021 	addu	a1,v1,a1
   802b4:	00652821 	addu	a2,a0,a2
   802b8:	00442021 	addu	a1,v1,a1
   802bc:	00652821 	addu	a2,a0,a2
   802c0:	00442021 	addu	a1,v1,a1
   802c4:	00652821 	addu	a2,a0,a2
   802c8:	00442021 	addu	a1,v1,a1
   802cc:	00652821 	addu	a2,a0,a2
   802d0:	00442021 	addu	a1,v1,a1
   802d4:	00652821 	addu	a2,a0,a2
   802d8:	00442021 	addu	a1,v1,a1
   802dc:	00652821 	addu	a2,a0,a2
   802e0:	00442021 	addu	a1,v1,a1
   802e4:	00652821 	addu	a2,a0,a2
   802e8:	00442021 	addu	a1,v1,a1
   802ec:	00652821 	addu	a2,a0,a2
   802f0:	00442021 	addu	a1,v1,a1
   802f4:	00652821 	addu	a2,a0,a2
   802f8:	00442021 	addu	a1,v1,a1
   802fc:	00652821 	addu	a2,a0,a2
   80300:	00442021 	addu	a1,v1,a1
   80304:	00652821 	addu	a2,a0,a2
   80308:	00442021 	addu	a1,v1,a1
   8030c:	00652821 	addu	a2,a0,a2
   80310:	00442021 	addu	a1,v1,a1
   80314:	00652821 	addu	a2,a0,a2
   80318:	00442021 	addu	a1,v1,a1
   8031c:	00652821 	addu	a2,a0,a2
   80320:	00442021 	addu	a1,v1,a1
   80324:	00652821 	addu	a2,a0,a2
   80328:	00442021 	addu	a1,v1,a1
   8032c:	00652821 	addu	a2,a0,a2
   80330:	00442021 	addu	a1,v1,a1
   80334:	00652821 	addu	a2,a0,a2
   80338:	00442021 	addu	a1,v1,a1
   8033c:	00652821 	addu	a2,a0,a2
   80340:	00442021 	addu	a1,v1,a1
   80344:	00652821 	addu	a2,a0,a2
   80348:	00442021 	addu	a1,v1,a1
   8034c:	00652821 	addu	a2,a0,a2
   80350:	00442021 	addu	a1,v1,a1
   80354:	00652821 	addu	a2,a0,a2
   80358:	00442021 	addu	a1,v1,a1
   8035c:	00652821 	addu	a2,a0,a2
   80360:	00442021 	addu	a1,v1,a1
   80364:	00652821 	addu	a2,a0,a2
   80368:	00442021 	addu	a1,v1,a1
   8036c:	00652821 	addu	a2,a0,a2
   80370:	00442021 	addu	a1,v1,a1
   80374:	00652821 	addu	a2,a0,a2
   80378:	00442021 	addu	a1,v1,a1
   8037c:	00652821 	addu	a2,a0,a2
   80380:	00442021 	addu	a1,v1,a1
   80384:	00652821 	addu	a2,a0,a2
   80388:	00442021 	addu	a1,v1,a1
   8038c:	00652821 	addu	a2,a0,a2
   80390:	00442021 	addu	a1,v1,a1
   80394:	00652821 	addu	a2,a0,a2
   80398:	00442021 	addu	a1,v1,a1
   8039c:	00652821 	addu	a2,a0,a2
   803a0:	00442021 	addu	a1,v1,a1
   803a4:	00652821 	addu	a2,a0,a2
   803a8:	00442021 	addu	a1,v1,a1
   803ac:	00652821 	addu	a2,a0,a2
   803b0:	00442021 	addu	a1,v1,a1
   803b4:	00652821 	addu	a2,a0,a2
   803b8:	00442021 	addu	a1,v1,a1
   803bc:	00652821 	addu	a2,a0,a2
   803c0:	00442021 	addu	a1,v1,a1
   803c4:	00652821 	addu	a2,a0,a2
   803c8:	241d00f9 	li	sp,249
   803cc:	241e0078 	li	at,120
   803d0:	149e0004 	bne	a1,at,803e4 <_fail>
   803d4:	241d00fa 	li	sp,250
   803d8:	241e00f0 	li	at,240
   803dc:	14be0001 	bne	a2,at,803e4 <_fail>

000803e0 <_pass>:
   803e0:	241d0001 	li	sp,1

000803e4 <_fail>:
   803e4:	24020001 	li	v1,1
   803e8:	409da800 	mtc0	sp,c0_staten
   803ec:	1402ffff 	bne	zero,v1,803ec <_fail+0x8>
   803f0:	00000000 	nop
   803f4:	00000000 	nop
   803f8:	00000000 	nop
   803fc:	00000000 	nop
   80400:	00000000 	nop
   80404:	00000000 	nop
   80408:	00000000 	nop
   8040c:	00000000 	nop
   80410:	00000000 	nop
   80414:	00000000 	nop
   80418:	00000000 	nop
   8041c:	00000000 	nop
   80420:	00000000 	nop
   80424:	00000000 	nop
   80428:	00000000 	nop
   8042c:	00000000 	nop
   80430:	00000000 	nop
   80434:	00000000 	nop
   80438:	00000000 	nop
   8043c:	00000000 	nop
   80440:	00000000 	nop
   80444:	00000000 	nop
   80448:	00000000 	nop
   8044c:	00000000 	nop
   80450:	00000000 	nop
   80454:	00000000 	nop
   80458:	00000000 	nop
   8045c:	00000000 	nop
   80460:	00000000 	nop
   80464:	00000000 	nop
   80468:	00000000 	nop
   8046c:	00000000 	nop
   80470:	00000000 	nop
   80474:	00000000 	nop
   80478:	00000000 	nop
   8047c:	00000000 	nop
   80480:	00000000 	nop
   80484:	00000000 	nop
   80488:	00000000 	nop
   8048c:	00000000 	nop
